; Function Attrs: nounwind uwtable
define ptr @l_Lean_Language_Lean_instToSnapshotTreeCommandParsedSnapshot_go___lambda__2(ptr noundef %0) #0 {
  %.val = load i32, ptr %0, align 4, !tbaa !8
  %2 = icmp eq i32 %.val, 1
  br i1 %2, label %3, label %16

3:                                                ; preds = %1
  %4 = getelementptr inbounds nuw i8, ptr %0, i64 16
  %5 = load ptr, ptr %4, align 8, !tbaa !4
  %6 = ptrtoint ptr %5 to i64
  %7 = and i64 %6, 1
  %.not20 = icmp eq i64 %7, 0
  br i1 %.not20, label %8, label %lean_dec.exit15

8:                                                ; preds = %3
  %9 = load i32, ptr %5, align 4, !tbaa !8
  %10 = icmp sgt i32 %9, 1
  br i1 %10, label %11, label %13, !prof !11

11:                                               ; preds = %8
  %12 = add nsw i32 %9, -1
  store i32 %12, ptr %5, align 4, !tbaa !8
  br label %lean_dec.exit15

13:                                               ; preds = %8
  %.not.i = icmp eq i32 %9, 0
  br i1 %.not.i, label %lean_dec.exit15, label %14

14:                                               ; preds = %13
  tail call void @lean_dec_ref_cold(ptr noundef nonnull %5) #3
  br label %lean_dec.exit15

lean_dec.exit15:                                  ; preds = %14, %13, %11, %3
  %15 = load ptr, ptr @l_Lean_Language_Lean_instToSnapshotTreeCommandResultSnapshot___closed__1, align 8, !tbaa !4
  store ptr %15, ptr %4, align 8, !tbaa !4
  br label %43

16:                                               ; preds = %1
  %17 = getelementptr inbounds nuw i8, ptr %0, i64 8
  %18 = load ptr, ptr %17, align 8, !tbaa !4
  %19 = ptrtoint ptr %18 to i64
  %20 = and i64 %19, 1
  %.not = icmp eq i64 %20, 0
  br i1 %.not, label %21, label %lean_inc.exit

21:                                               ; preds = %16
  %.val.i = load i32, ptr %18, align 4, !tbaa !8
  %22 = icmp sgt i32 %.val.i, 0
  br i1 %22, label %23, label %25, !prof !11

23:                                               ; preds = %21
  %24 = add nuw i32 %.val.i, 1
  store i32 %24, ptr %18, align 4, !tbaa !8
  br label %lean_inc.exit

25:                                               ; preds = %21
  %.not.i18 = icmp eq i32 %.val.i, 0
  br i1 %.not.i18, label %lean_inc.exit, label %26

26:                                               ; preds = %25
  tail call void @lean_inc_ref_cold(ptr noundef nonnull %18) #3
  br label %lean_inc.exit

lean_inc.exit:                                    ; preds = %26, %25, %23, %16
  %27 = ptrtoint ptr %0 to i64
  %28 = and i64 %27, 1
  %.not19 = icmp eq i64 %28, 0
  br i1 %.not19, label %29, label %lean_dec.exit

29:                                               ; preds = %lean_inc.exit
  %30 = load i32, ptr %0, align 4, !tbaa !8
  %31 = icmp sgt i32 %30, 1
  br i1 %31, label %32, label %34, !prof !11

32:                                               ; preds = %29
  %33 = add nsw i32 %30, -1
  store i32 %33, ptr %0, align 4, !tbaa !8
  br label %lean_dec.exit

34:                                               ; preds = %29
  %.not.i16 = icmp eq i32 %30, 0
  br i1 %.not.i16, label %lean_dec.exit, label %35

35:                                               ; preds = %34
  tail call void @lean_dec_ref_cold(ptr noundef nonnull %0) #3
  br label %lean_dec.exit

lean_dec.exit:                                    ; preds = %35, %34, %32, %lean_inc.exit
  %36 = load ptr, ptr @l_Lean_Language_Lean_instToSnapshotTreeCommandResultSnapshot___closed__1, align 8, !tbaa !4
  tail call void @lean_inc_heartbeat() #3
  %37 = tail call noalias ptr @mi_malloc_small(i64 noundef 24) #3
  %38 = icmp eq ptr %37, null
  br i1 %38, label %39, label %lean_alloc_ctor.exit

39:                                               ; preds = %lean_dec.exit
  tail call void @lean_internal_panic_out_of_memory() #4
  unreachable

lean_alloc_ctor.exit:                             ; preds = %lean_dec.exit
  %40 = getelementptr inbounds nuw i8, ptr %37, i64 4
  store i32 1, ptr %37, align 4, !tbaa !8
  store i32 131096, ptr %40, align 4
  %41 = getelementptr inbounds nuw i8, ptr %37, i64 8
  store ptr %18, ptr %41, align 8, !tbaa !4
  %42 = getelementptr inbounds nuw i8, ptr %37, i64 16
  store ptr %36, ptr %42, align 8, !tbaa !4
  br label %43

43:                                               ; preds = %lean_alloc_ctor.exit, %lean_dec.exit15
  %.0 = phi ptr [ %0, %lean_dec.exit15 ], [ %37, %lean_alloc_ctor.exit ]
  ret ptr %.0
}